; ModuleID = '31/396.c'
source_filename = "31/396.c"
target datalayout = "e-m:e-p270:32:32-p271:32:32-p272:64:64-i64:64-f80:128-n8:16:32:64-S128"
target triple = "x86_64-pc-linux-gnu"

%struct.student = type { [10 x i8], [20 x i8], [2 x i8], i32, float, [40 x i8], %struct.student* }

@.str = private unnamed_addr constant [3 x i8] c"%s\00", align 1
@.str.1 = private unnamed_addr constant [11 x i8] c"%s%s%d%f%s\00", align 1
@.str.2 = private unnamed_addr constant [19 x i8] c"%s %s %s %d %g %s\0A\00", align 1

; Function Attrs: noinline nounwind uwtable
define dso_local void @main() #0 {
  %1 = alloca %struct.student*, align 8
  %2 = alloca %struct.student*, align 8
  %3 = alloca %struct.student*, align 8
  %4 = call noalias i8* @malloc(i64 100) #3
  %5 = bitcast i8* %4 to %struct.student*
  store %struct.student* %5, %struct.student** %2, align 8
  %6 = load %struct.student*, %struct.student** %2, align 8
  %7 = getelementptr inbounds %struct.student, %struct.student* %6, i32 0, i32 6
  store %struct.student* null, %struct.student** %7, align 8
  %8 = load %struct.student*, %struct.student** %2, align 8
  %9 = getelementptr inbounds %struct.student, %struct.student* %8, i32 0, i32 0
  %10 = getelementptr inbounds [10 x i8], [10 x i8]* %9, i64 0, i64 0
  %11 = call i32 (i8*, ...) @__isoc99_scanf(i8* getelementptr inbounds ([3 x i8], [3 x i8]* @.str, i64 0, i64 0), i8* %10)
  br label %12

12:                                               ; preds = %19, %0
  %13 = load %struct.student*, %struct.student** %2, align 8
  %14 = getelementptr inbounds %struct.student, %struct.student* %13, i32 0, i32 0
  %15 = getelementptr inbounds [10 x i8], [10 x i8]* %14, i64 0, i64 0
  %16 = load i8, i8* %15, align 8
  %17 = sext i8 %16 to i32
  %18 = icmp ne i32 %17, 101
  br i1 %18, label %19, label %44

19:                                               ; preds = %12
  %20 = load %struct.student*, %struct.student** %2, align 8
  %21 = getelementptr inbounds %struct.student, %struct.student* %20, i32 0, i32 1
  %22 = getelementptr inbounds [20 x i8], [20 x i8]* %21, i64 0, i64 0
  %23 = load %struct.student*, %struct.student** %2, align 8
  %24 = getelementptr inbounds %struct.student, %struct.student* %23, i32 0, i32 2
  %25 = getelementptr inbounds [2 x i8], [2 x i8]* %24, i64 0, i64 0
  %26 = load %struct.student*, %struct.student** %2, align 8
  %27 = getelementptr inbounds %struct.student, %struct.student* %26, i32 0, i32 3
  %28 = load %struct.student*, %struct.student** %2, align 8
  %29 = getelementptr inbounds %struct.student, %struct.student* %28, i32 0, i32 4
  %30 = load %struct.student*, %struct.student** %2, align 8
  %31 = getelementptr inbounds %struct.student, %struct.student* %30, i32 0, i32 5
  %32 = getelementptr inbounds [40 x i8], [40 x i8]* %31, i64 0, i64 0
  %33 = call i32 (i8*, ...) @__isoc99_scanf(i8* getelementptr inbounds ([11 x i8], [11 x i8]* @.str.1, i64 0, i64 0), i8* %22, i8* %25, i32* %27, float* %29, i8* %32)
  %34 = load %struct.student*, %struct.student** %2, align 8
  store %struct.student* %34, %struct.student** %3, align 8
  %35 = call noalias i8* @malloc(i64 100) #3
  %36 = bitcast i8* %35 to %struct.student*
  store %struct.student* %36, %struct.student** %2, align 8
  %37 = load %struct.student*, %struct.student** %3, align 8
  %38 = load %struct.student*, %struct.student** %2, align 8
  %39 = getelementptr inbounds %struct.student, %struct.student* %38, i32 0, i32 6
  store %struct.student* %37, %struct.student** %39, align 8
  %40 = load %struct.student*, %struct.student** %2, align 8
  %41 = getelementptr inbounds %struct.student, %struct.student* %40, i32 0, i32 0
  %42 = getelementptr inbounds [10 x i8], [10 x i8]* %41, i64 0, i64 0
  %43 = call i32 (i8*, ...) @__isoc99_scanf(i8* getelementptr inbounds ([3 x i8], [3 x i8]* @.str, i64 0, i64 0), i8* %42)
  br label %12

44:                                               ; preds = %12
  %45 = load %struct.student*, %struct.student** %3, align 8
  %46 = getelementptr inbounds %struct.student, %struct.student* %45, i32 0, i32 6
  %47 = load %struct.student*, %struct.student** %46, align 8
  %48 = icmp ne %struct.student* %47, null
  br i1 %48, label %49, label %102

49:                                               ; preds = %44
  %50 = load %struct.student*, %struct.student** %3, align 8
  store %struct.student* %50, %struct.student** %1, align 8
  br label %51

51:                                               ; preds = %77, %49
  %52 = load %struct.student*, %struct.student** %1, align 8
  %53 = getelementptr inbounds %struct.student, %struct.student* %52, i32 0, i32 6
  %54 = load %struct.student*, %struct.student** %53, align 8
  %55 = icmp ne %struct.student* %54, null
  br i1 %55, label %56, label %81

56:                                               ; preds = %51
  %57 = load %struct.student*, %struct.student** %1, align 8
  %58 = getelementptr inbounds %struct.student, %struct.student* %57, i32 0, i32 0
  %59 = getelementptr inbounds [10 x i8], [10 x i8]* %58, i64 0, i64 0
  %60 = load %struct.student*, %struct.student** %1, align 8
  %61 = getelementptr inbounds %struct.student, %struct.student* %60, i32 0, i32 1
  %62 = getelementptr inbounds [20 x i8], [20 x i8]* %61, i64 0, i64 0
  %63 = load %struct.student*, %struct.student** %1, align 8
  %64 = getelementptr inbounds %struct.student, %struct.student* %63, i32 0, i32 2
  %65 = getelementptr inbounds [2 x i8], [2 x i8]* %64, i64 0, i64 0
  %66 = load %struct.student*, %struct.student** %1, align 8
  %67 = getelementptr inbounds %struct.student, %struct.student* %66, i32 0, i32 3
  %68 = load i32, i32* %67, align 8
  %69 = load %struct.student*, %struct.student** %1, align 8
  %70 = getelementptr inbounds %struct.student, %struct.student* %69, i32 0, i32 4
  %71 = load float, float* %70, align 4
  %72 = fpext float %71 to double
  %73 = load %struct.student*, %struct.student** %1, align 8
  %74 = getelementptr inbounds %struct.student, %struct.student* %73, i32 0, i32 5
  %75 = getelementptr inbounds [40 x i8], [40 x i8]* %74, i64 0, i64 0
  %76 = call i32 (i8*, ...) @printf(i8* getelementptr inbounds ([19 x i8], [19 x i8]* @.str.2, i64 0, i64 0), i8* %59, i8* %62, i8* %65, i32 %68, double %72, i8* %75)
  br label %77

77:                                               ; preds = %56
  %78 = load %struct.student*, %struct.student** %1, align 8
  %79 = getelementptr inbounds %struct.student, %struct.student* %78, i32 0, i32 6
  %80 = load %struct.student*, %struct.student** %79, align 8
  store %struct.student* %80, %struct.student** %1, align 8
  br label %51

81:                                               ; preds = %51
  %82 = load %struct.student*, %struct.student** %1, align 8
  %83 = getelementptr inbounds %struct.student, %struct.student* %82, i32 0, i32 0
  %84 = getelementptr inbounds [10 x i8], [10 x i8]* %83, i64 0, i64 0
  %85 = load %struct.student*, %struct.student** %1, align 8
  %86 = getelementptr inbounds %struct.student, %struct.student* %85, i32 0, i32 1
  %87 = getelementptr inbounds [20 x i8], [20 x i8]* %86, i64 0, i64 0
  %88 = load %struct.student*, %struct.student** %1, align 8
  %89 = getelementptr inbounds %struct.student, %struct.student* %88, i32 0, i32 2
  %90 = getelementptr inbounds [2 x i8], [2 x i8]* %89, i64 0, i64 0
  %91 = load %struct.student*, %struct.student** %1, align 8
  %92 = getelementptr inbounds %struct.student, %struct.student* %91, i32 0, i32 3
  %93 = load i32, i32* %92, align 8
  %94 = load %struct.student*, %struct.student** %1, align 8
  %95 = getelementptr inbounds %struct.student, %struct.student* %94, i32 0, i32 4
  %96 = load float, float* %95, align 4
  %97 = fpext float %96 to double
  %98 = load %struct.student*, %struct.student** %1, align 8
  %99 = getelementptr inbounds %struct.student, %struct.student* %98, i32 0, i32 5
  %100 = getelementptr inbounds [40 x i8], [40 x i8]* %99, i64 0, i64 0
  %101 = call i32 (i8*, ...) @printf(i8* getelementptr inbounds ([19 x i8], [19 x i8]* @.str.2, i64 0, i64 0), i8* %84, i8* %87, i8* %90, i32 %93, double %97, i8* %100)
  br label %102

102:                                              ; preds = %81, %44
  %103 = load %struct.student*, %struct.student** %3, align 8
  %104 = getelementptr inbounds %struct.student, %struct.student* %103, i32 0, i32 6
  store %struct.student* null, %struct.student** %104, align 8
  br i1 false, label %105, label %126

105:                                              ; preds = %102
  %106 = load %struct.student*, %struct.student** %3, align 8
  %107 = getelementptr inbounds %struct.student, %struct.student* %106, i32 0, i32 0
  %108 = getelementptr inbounds [10 x i8], [10 x i8]* %107, i64 0, i64 0
  %109 = load %struct.student*, %struct.student** %3, align 8
  %110 = getelementptr inbounds %struct.student, %struct.student* %109, i32 0, i32 1
  %111 = getelementptr inbounds [20 x i8], [20 x i8]* %110, i64 0, i64 0
  %112 = load %struct.student*, %struct.student** %3, align 8
  %113 = getelementptr inbounds %struct.student, %struct.student* %112, i32 0, i32 2
  %114 = getelementptr inbounds [2 x i8], [2 x i8]* %113, i64 0, i64 0
  %115 = load %struct.student*, %struct.student** %3, align 8
  %116 = getelementptr inbounds %struct.student, %struct.student* %115, i32 0, i32 3
  %117 = load i32, i32* %116, align 8
  %118 = load %struct.student*, %struct.student** %3, align 8
  %119 = getelementptr inbounds %struct.student, %struct.student* %118, i32 0, i32 4
  %120 = load float, float* %119, align 4
  %121 = fpext float %120 to double
  %122 = load %struct.student*, %struct.student** %3, align 8
  %123 = getelementptr inbounds %struct.student, %struct.student* %122, i32 0, i32 5
  %124 = getelementptr inbounds [40 x i8], [40 x i8]* %123, i64 0, i64 0
  %125 = call i32 (i8*, ...) @printf(i8* getelementptr inbounds ([19 x i8], [19 x i8]* @.str.2, i64 0, i64 0), i8* %108, i8* %111, i8* %114, i32 %117, double %121, i8* %124)
  br label %126

126:                                              ; preds = %105, %102
  ret void
}

; Function Attrs: nounwind
declare dso_local noalias i8* @malloc(i64) #1

declare dso_local i32 @__isoc99_scanf(i8*, ...) #2

declare dso_local i32 @printf(i8*, ...) #2


!llvm.module.flags = !{!0}
!llvm.ident = !{!1}

!0 = !{i32 1, !"wchar_size", i32 4}
!1 = !{!"clang version 10.0.0-4ubuntu1 "}
